; Function Attrs: mustprogress nounwind uwtable
define void @ImfDeleteLut(ptr noundef %0) local_unnamed_addr #12 {
  %2 = icmp eq ptr %0, null
  br i1 %2, label %7, label %3

3:                                                ; preds = %1
  %4 = load ptr, ptr %0, align 8, !tbaa !62
  %5 = icmp eq ptr %4, null
  br i1 %5, label %_ZN7Imf_3_47RgbaLutD2Ev.exit, label %6

6:                                                ; preds = %3
  tail call void @_ZdaPv(ptr noundef nonnull %4) #25
  br label %_ZN7Imf_3_47RgbaLutD2Ev.exit

_ZN7Imf_3_47RgbaLutD2Ev.exit:                     ; preds = %3, %6
  tail call void @_ZdlPvm(ptr noundef nonnull %0, i64 noundef 16) #25
  br label %7

7:                                                ; preds = %_ZN7Imf_3_47RgbaLutD2Ev.exit, %1
  ret void
}